target datalayout = "e-m:e-p270:32:32-p271:32:32-p272:64:64-i64:64-i128:128-f80:128-n8:16:32:64-S128"
target triple = "x86_64-pc-linux-gnu"

%struct.archive_read_filter = type { i64, ptr, ptr, ptr, ptr, ptr, ptr, i32, i32, i32, ptr, i64, ptr, i64, ptr, i64, ptr, i64, i8, i8, i8 }
%struct.archive_read = type { %struct.archive, ptr, i32, i64, i64, %struct.archive_read_client, [16 x %struct.archive_read_filter_bidder], ptr, i32, i64, i32, i32, [16 x %struct.archive_format_descriptor], ptr, ptr, ptr, %struct.anon }
%struct.archive = type { i32, i32, ptr, i32, ptr, i32, i32, ptr, %struct.archive_string, ptr, i32, i32, ptr, ptr, i64, i64, i64, i8, i64 }
%struct.archive_string = type { ptr, i64, i64 }
%struct.archive_read_client = type { ptr, ptr, ptr, ptr, ptr, ptr, i32, i32, i64, ptr }
%struct.archive_read_filter_bidder = type { ptr, ptr, ptr }
%struct.archive_format_descriptor = type { ptr, ptr, ptr, ptr, ptr, ptr, ptr, ptr, ptr, ptr, ptr }
%struct.anon = type { ptr, ptr, i32, ptr, ptr }

@.str.11 = private unnamed_addr constant [43 x i8] c"Lzma library error: Cannot allocate memory\00", align 1
@.str.12 = private unnamed_addr constant [34 x i8] c"Lzma library error: Out of memory\00", align 1
@.str.13 = private unnamed_addr constant [42 x i8] c"Lzma library error: format not recognized\00", align 1
@.str.14 = private unnamed_addr constant [36 x i8] c"Lzma library error: Invalid options\00", align 1
@.str.15 = private unnamed_addr constant [41 x i8] c"Lzma library error: Corrupted input data\00", align 1
@.str.16 = private unnamed_addr constant [45 x i8] c"Lzma library error:  No progress is possible\00", align 1
@.str.17 = private unnamed_addr constant [42 x i8] c"Lzma decompression failed:  Unknown error\00", align 1

; Function Attrs: nounwind uwtable
define internal void @set_error(ptr noundef %0, i32 noundef %1) #0 {
  %3 = alloca ptr, align 8
  %4 = alloca i32, align 4
  store ptr %0, ptr %3, align 8, !tbaa !13
  store i32 %1, ptr %4, align 4, !tbaa !39
  %5 = load i32, ptr %4, align 4, !tbaa !39
  switch i32 %5, label %37 [
    i32 1, label %6
    i32 0, label %6
    i32 5, label %7
    i32 6, label %12
    i32 7, label %17
    i32 8, label %22
    i32 9, label %27
    i32 10, label %32
  ]

6:                                                ; preds = %2, %2
  br label %42

7:                                                ; preds = %2
  %8 = load ptr, ptr %3, align 8, !tbaa !13
  %9 = getelementptr inbounds nuw %struct.archive_read_filter, ptr %8, i32 0, i32 3
  %10 = load ptr, ptr %9, align 8, !tbaa !26
  %11 = getelementptr inbounds nuw %struct.archive_read, ptr %10, i32 0, i32 0
  call void (ptr, i32, ptr, ...) @archive_set_error(ptr noundef %11, i32 noundef 12, ptr noundef @.str.11)
  br label %42

12:                                               ; preds = %2
  %13 = load ptr, ptr %3, align 8, !tbaa !13
  %14 = getelementptr inbounds nuw %struct.archive_read_filter, ptr %13, i32 0, i32 3
  %15 = load ptr, ptr %14, align 8, !tbaa !26
  %16 = getelementptr inbounds nuw %struct.archive_read, ptr %15, i32 0, i32 0
  call void (ptr, i32, ptr, ...) @archive_set_error(ptr noundef %16, i32 noundef 12, ptr noundef @.str.12)
  br label %42

17:                                               ; preds = %2
  %18 = load ptr, ptr %3, align 8, !tbaa !13
  %19 = getelementptr inbounds nuw %struct.archive_read_filter, ptr %18, i32 0, i32 3
  %20 = load ptr, ptr %19, align 8, !tbaa !26
  %21 = getelementptr inbounds nuw %struct.archive_read, ptr %20, i32 0, i32 0
  call void (ptr, i32, ptr, ...) @archive_set_error(ptr noundef %21, i32 noundef -1, ptr noundef @.str.13)
  br label %42

22:                                               ; preds = %2
  %23 = load ptr, ptr %3, align 8, !tbaa !13
  %24 = getelementptr inbounds nuw %struct.archive_read_filter, ptr %23, i32 0, i32 3
  %25 = load ptr, ptr %24, align 8, !tbaa !26
  %26 = getelementptr inbounds nuw %struct.archive_read, ptr %25, i32 0, i32 0
  call void (ptr, i32, ptr, ...) @archive_set_error(ptr noundef %26, i32 noundef -1, ptr noundef @.str.14)
  br label %42

27:                                               ; preds = %2
  %28 = load ptr, ptr %3, align 8, !tbaa !13
  %29 = getelementptr inbounds nuw %struct.archive_read_filter, ptr %28, i32 0, i32 3
  %30 = load ptr, ptr %29, align 8, !tbaa !26
  %31 = getelementptr inbounds nuw %struct.archive_read, ptr %30, i32 0, i32 0
  call void (ptr, i32, ptr, ...) @archive_set_error(ptr noundef %31, i32 noundef -1, ptr noundef @.str.15)
  br label %42

32:                                               ; preds = %2
  %33 = load ptr, ptr %3, align 8, !tbaa !13
  %34 = getelementptr inbounds nuw %struct.archive_read_filter, ptr %33, i32 0, i32 3
  %35 = load ptr, ptr %34, align 8, !tbaa !26
  %36 = getelementptr inbounds nuw %struct.archive_read, ptr %35, i32 0, i32 0
  call void (ptr, i32, ptr, ...) @archive_set_error(ptr noundef %36, i32 noundef -1, ptr noundef @.str.16)
  br label %42

37:                                               ; preds = %2
  %38 = load ptr, ptr %3, align 8, !tbaa !13
  %39 = getelementptr inbounds nuw %struct.archive_read_filter, ptr %38, i32 0, i32 3
  %40 = load ptr, ptr %39, align 8, !tbaa !26
  %41 = getelementptr inbounds nuw %struct.archive_read, ptr %40, i32 0, i32 0
  call void (ptr, i32, ptr, ...) @archive_set_error(ptr noundef %41, i32 noundef -1, ptr noundef @.str.17)
  br label %42

42:                                               ; preds = %37, %32, %27, %22, %17, %12, %7, %6
  ret void
}