; Function Attrs: nounwind uwtable
define internal fastcc void @set_error(ptr noundef readonly captures(none) %0, i32 noundef %1) unnamed_addr #0 {
  switch i32 %1, label %21 [
    i32 1, label %24
    i32 0, label %24
    i32 5, label %3
    i32 6, label %6
    i32 7, label %9
    i32 8, label %12
    i32 9, label %15
    i32 10, label %18
  ]

3:                                                ; preds = %2
  %4 = getelementptr inbounds nuw i8, ptr %0, i64 24
  %5 = load ptr, ptr %4, align 8, !tbaa !17
  tail call void (ptr, i32, ptr, ...) @archive_set_error(ptr noundef %5, i32 noundef 12, ptr noundef nonnull @.str.11) #10
  br label %24

6:                                                ; preds = %2
  %7 = getelementptr inbounds nuw i8, ptr %0, i64 24
  %8 = load ptr, ptr %7, align 8, !tbaa !17
  tail call void (ptr, i32, ptr, ...) @archive_set_error(ptr noundef %8, i32 noundef 12, ptr noundef nonnull @.str.12) #10
  br label %24

9:                                                ; preds = %2
  %10 = getelementptr inbounds nuw i8, ptr %0, i64 24
  %11 = load ptr, ptr %10, align 8, !tbaa !17
  tail call void (ptr, i32, ptr, ...) @archive_set_error(ptr noundef %11, i32 noundef -1, ptr noundef nonnull @.str.13) #10
  br label %24

12:                                               ; preds = %2
  %13 = getelementptr inbounds nuw i8, ptr %0, i64 24
  %14 = load ptr, ptr %13, align 8, !tbaa !17
  tail call void (ptr, i32, ptr, ...) @archive_set_error(ptr noundef %14, i32 noundef -1, ptr noundef nonnull @.str.14) #10
  br label %24

15:                                               ; preds = %2
  %16 = getelementptr inbounds nuw i8, ptr %0, i64 24
  %17 = load ptr, ptr %16, align 8, !tbaa !17
  tail call void (ptr, i32, ptr, ...) @archive_set_error(ptr noundef %17, i32 noundef -1, ptr noundef nonnull @.str.15) #10
  br label %24

18:                                               ; preds = %2
  %19 = getelementptr inbounds nuw i8, ptr %0, i64 24
  %20 = load ptr, ptr %19, align 8, !tbaa !17
  tail call void (ptr, i32, ptr, ...) @archive_set_error(ptr noundef %20, i32 noundef -1, ptr noundef nonnull @.str.16) #10
  br label %24

21:                                               ; preds = %2
  %22 = getelementptr inbounds nuw i8, ptr %0, i64 24
  %23 = load ptr, ptr %22, align 8, !tbaa !17
  tail call void (ptr, i32, ptr, ...) @archive_set_error(ptr noundef %23, i32 noundef -1, ptr noundef nonnull @.str.17) #10
  br label %24

24:                                               ; preds = %2, %2, %21, %18, %15, %12, %9, %6, %3
  ret void
}